EXPORTS 
	??_R0?AV?$_Ref_count_obj2@VLogger@utils@wh@@@std@@@8 	 DATA
	??_R0?AVILogger@utils@wh@@@8 	 DATA
	??_R0?AVLogger@utils@wh@@@8 	 DATA
	??_R0?AV_Ref_count_base@std@@@8 	 DATA
	??_R0?AVbad_alloc@std@@@8 	 DATA
	??_R0?AVbad_array_new_length@std@@@8 	 DATA
	??_R0?AVexception@std@@@8 	 DATA
	??_R0?AVruntime_error@std@@@8 	 DATA
	??$?0$$V@?$FastPimpl@VPimpl@Logger@utils@wh@@$0BA@$07@utils@wh@@QEAA@XZ
	??$?0$$V@?$_Compressed_pair@V?$allocator@D@std@@V?$_String_val@U?$_Simple_types@D@std@@@2@$00@std@@QEAA@U_Zero_then_variadic_args_t@1@@Z
	??$?0$$V@?$_Ref_count_obj2@VLogger@utils@wh@@@std@@QEAA@XZ
	??$?0AEBV?$allocator@D@std@@$$V@?$_Compressed_pair@V?$allocator@D@std@@V?$_String_val@U?$_Simple_types@D@std@@@2@$00@std@@QEAA@U_One_then_variadic_args_t@1@AEBV?$allocator@D@1@@Z
	??$?0AEBV?$allocator@E@std@@$$V@?$_Compressed_pair@V?$allocator@E@std@@V?$_Vector_val@U?$_Simple_types@E@std@@@2@$00@std@@QEAA@U_One_then_variadic_args_t@1@AEBV?$allocator@E@1@@Z
	??$?0D@?$allocator@U_Container_proxy@std@@@std@@QEAA@AEBV?$allocator@D@1@@Z
	??$?0E@?$allocator@U_Container_proxy@std@@@std@@QEAA@AEBV?$allocator@E@1@@Z
	??$?0N$0A@@?$duration@NU?$ratio@$00$0DLJKMKAA@@std@@@chrono@std@@QEAA@AEBN@Z
	??$?0NU?$ratio@$00$00@std@@$0A@@?$duration@NU?$ratio@$00$0DLJKMKAA@@std@@@chrono@std@@QEAA@AEBV?$duration@NU?$ratio@$00$00@std@@@12@@Z
	??$?0P8ConditionVariable@utils@wh@@EBA_NXZPEAV012@@?$_Compressed_pair@P8ConditionVariable@utils@wh@@EBA_NXZV?$tuple@PEAVConditionVariable@utils@wh@@@std@@$0A@@std@@QEAA@U_One_then_variadic_args_t@1@$$QEAP8ConditionVariable@utils@wh@@EBA_NXZ$$QEAPEAV345@@Z
	??$?0PEAVConditionVariable@utils@wh@@$$V$0A@@?$tuple@PEAVConditionVariable@utils@wh@@@std@@QEAA@$$QEAPEAVConditionVariable@utils@wh@@@Z
	??$?0PEAVConditionVariable@utils@wh@@@?$_Tuple_val@PEAVConditionVariable@utils@wh@@@std@@QEAA@$$QEAPEAVConditionVariable@utils@wh@@@Z
	??$?0U_Exact_args_t@std@@$0A@@?$tuple@$$V@std@@QEAA@U_Exact_args_t@1@@Z
	??$?0U_Exact_args_t@std@@PEAVConditionVariable@utils@wh@@$$V$0A@@?$tuple@PEAVConditionVariable@utils@wh@@@std@@QEAA@U_Exact_args_t@1@$$QEAPEAVConditionVariable@utils@wh@@@Z
	??$?0V?$_Array_const_iterator@E$0DPI@@std@@$0A@@?$vector@EV?$allocator@E@std@@@std@@QEAA@V?$_Array_const_iterator@E$0DPI@@1@0AEBV?$allocator@E@1@@Z
	??$?0V?$_Vector_iterator@V?$_Vector_val@U?$_Simple_types@E@std@@@std@@@std@@$0A@@?$basic_string@DU?$char_traits@D@std@@V?$allocator@D@2@@std@@QEAA@V?$_Vector_iterator@V?$_Vector_val@U?$_Simple_types@E@std@@@std@@@1@0AEBV?$allocator@D@1@@Z
	??$?0V?$allocator@D@std@@$$V@?$_Compressed_pair@V?$allocator@D@std@@V?$_String_val@U?$_Simple_types@D@std@@@2@$00@std@@QEAA@U_One_then_variadic_args_t@1@$$QEAV?$allocator@D@1@@Z
	??$?0V?$allocator@E@std@@PEAEPEAEPEAE@?$_Compressed_pair@V?$allocator@E@std@@V?$_Vector_val@U?$_Simple_types@E@std@@@2@$00@std@@QEAA@U_One_then_variadic_args_t@1@$$QEAV?$allocator@E@1@$$QEAPEAE22@Z
	??$?0V?$basic_string_view@DU?$char_traits@D@std@@@std@@$0A@@?$basic_string_view@D@v9@fmt@@QEAA@V?$basic_string_view@DU?$char_traits@D@std@@@std@@@Z
	??$?0VLogger@utils@wh@@$0A@@?$shared_ptr@VILogger@utils@wh@@@std@@QEAA@AEBV?$shared_ptr@VLogger@utils@wh@@@1@@Z
	??$?0_J$0A@@?$duration@_JU?$ratio@$00$00@std@@@chrono@std@@QEAA@AEB_J@Z
	??$?0_J$0A@@?$duration@_JU?$ratio@$00$0DLJKMKAA@@std@@@chrono@std@@QEAA@AEB_J@Z
	??$?0_J$0A@@?$duration@_JU?$ratio@$00$0JIJGIA@@std@@@chrono@std@@QEAA@AEB_J@Z
	??$?0_JU?$ratio@$00$00@std@@$0A@@?$duration@_JU?$ratio@$00$0DLJKMKAA@@std@@@chrono@std@@QEAA@AEBV?$duration@_JU?$ratio@$00$00@std@@@12@@Z
	??$?0_JU?$ratio@$00$0DLJKMKAA@@std@@$0A@@?$duration@NU?$ratio@$00$0DLJKMKAA@@std@@@chrono@std@@QEAA@AEBV?$duration@_JU?$ratio@$00$0DLJKMKAA@@std@@@12@@Z
	??$?0_JU?$ratio@$00$0DOI@@std@@$0A@@?$duration@_JU?$ratio@$00$0DLJKMKAA@@std@@@chrono@std@@QEAA@AEBV?$duration@_JU?$ratio@$00$0DOI@@std@@@12@@Z
	??$?0_JU?$ratio@$00$0JIJGIA@@std@@$0A@@?$duration@_JU?$ratio@$00$0DLJKMKAA@@std@@@chrono@std@@QEAA@AEBV?$duration@_JU?$ratio@$00$0JIJGIA@@std@@@12@@Z
	??$?0_K$0A@@?$duration@_JU?$ratio@$00$0DOI@@std@@@chrono@std@@QEAA@AEB_K@Z
	??$?CVlogger@spdlog@@$0A@@?$shared_ptr@Vlogger@spdlog@@@std@@QEBAPEAVlogger@spdlog@@XZ
	??$?GUsteady_clock@chrono@std@@V?$duration@_JU?$ratio@$00$0DLJKMKAA@@std@@@12@V312@@chrono@std@@YA?AV?$duration@_JU?$ratio@$00$0DLJKMKAA@@std@@@01@AEBV?$time_point@Usteady_clock@chrono@std@@V?$duration@_JU?$ratio@$00$0DLJKMKAA@@std@@@23@@01@0@Z
	??$?GUsteady_clock@chrono@std@@V?$duration@_JU?$ratio@$00$0DLJKMKAA@@std@@@12@_JU?$ratio@$00$0DOI@@2@@chrono@std@@YA?AV?$time_point@Usteady_clock@chrono@std@@V?$duration@_JU?$ratio@$00$0DLJKMKAA@@std@@@23@@01@AEBV201@AEBV?$duration@_JU?$ratio@$00$0DOI@@std@@@01@@Z
	??$?G_JU?$ratio@$00$0DLJKMKAA@@std@@_JU01@@chrono@std@@YA?AV?$duration@_JU?$ratio@$00$0DLJKMKAA@@std@@@01@AEBV201@0@Z
	??$?G_JU?$ratio@$00$0DLJKMKAA@@std@@_JU?$ratio@$00$0DOI@@1@@chrono@std@@YA?AV?$duration@_JU?$ratio@$00$0DLJKMKAA@@std@@@01@AEBV201@AEBV?$duration@_JU?$ratio@$00$0DOI@@std@@@01@@Z
	??$?MNU?$ratio@$00$00@std@@_JU?$ratio@$00$0DLJKMKAA@@1@@chrono@std@@YA_NAEBV?$duration@NU?$ratio@$00$00@std@@@01@AEBV?$duration@_JU?$ratio@$00$0DLJKMKAA@@std@@@01@@Z
	??$?MUsteady_clock@chrono@std@@V?$duration@_JU?$ratio@$00$0DLJKMKAA@@std@@@12@V312@@chrono@std@@YA_NAEBV?$time_point@Usteady_clock@chrono@std@@V?$duration@_JU?$ratio@$00$0DLJKMKAA@@std@@@23@@01@0@Z
	??$?M_JU?$ratio@$00$0DLJKMKAA@@std@@_JU01@@chrono@std@@YA_NAEBV?$duration@_JU?$ratio@$00$0DLJKMKAA@@std@@@01@0@Z
	??$?M_JU?$ratio@$00$0DOI@@std@@_JU01@@chrono@std@@YA_NAEBV?$duration@_JU?$ratio@$00$0DOI@@std@@@01@0@Z
	??$?NUsteady_clock@chrono@std@@V?$duration@_JU?$ratio@$00$0DLJKMKAA@@std@@@12@V312@@chrono@std@@YA_NAEBV?$time_point@Usteady_clock@chrono@std@@V?$duration@_JU?$ratio@$00$0DLJKMKAA@@std@@@23@@01@0@Z
	??$?O_JU?$ratio@$00$0DOI@@std@@_JU01@@chrono@std@@YA_NAEBV?$duration@_JU?$ratio@$00$0DOI@@std@@@01@0@Z
	??$?R$$V@?$_Binder@U_Unforced@std@@P8ConditionVariable@utils@wh@@EBA_NXZPEAV345@@std@@QEAA_NXZ
	??$_Adl_verify_range@V?$_Array_const_iterator@E$0DPI@@std@@V12@@std@@YAXAEBV?$_Array_const_iterator@E$0DPI@@0@0@Z
	??$_Adl_verify_range@V?$_Vector_iterator@V?$_Vector_val@U?$_Simple_types@E@std@@@std@@@std@@V12@@std@@YAXAEBV?$_Vector_iterator@V?$_Vector_val@U?$_Simple_types@E@std@@@std@@@0@0@Z
	??$_Alloc_proxy@V?$allocator@U_Container_proxy@std@@@std@@@_Container_base12@std@@QEAAX$$QEAV?$allocator@U_Container_proxy@std@@@1@@Z
	??$_Allocate@$0BA@U_Default_allocate_traits@std@@$0A@@std@@YAPEAX_K@Z
	??$_Allocate_manually_vector_aligned@U_Default_allocate_traits@std@@@std@@YAPEAX_K@Z
	??$_Atomic_address_as@DU?$_Atomic_padded@_N@std@@@std@@YAPECDAEAU?$_Atomic_padded@_N@0@@Z
	??$_Atomic_address_as@DU?$_Atomic_padded@_N@std@@@std@@YAPEDDAEBU?$_Atomic_padded@_N@0@@Z
	??$_Atomic_reinterpret_as@D_N@std@@YADAEB_N@Z
	??$_Call@AEAP8ConditionVariable@utils@wh@@EBA_NXZAEAPEAV123@@?$_Invoker_ret@U_Unforced@std@@@std@@SA_NAEAP8ConditionVariable@utils@wh@@EBA_NXZAEAPEAV234@@Z
	??$_Call_binder@U_Unforced@std@@$0A@P8ConditionVariable@utils@wh@@EBA_NXZV?$tuple@PEAVConditionVariable@utils@wh@@@2@V?$tuple@$$V@2@@std@@YA_NU?$_Invoker_ret@U_Unforced@std@@@0@U?$integer_sequence@_K$0A@@0@AEAP8ConditionVariable@utils@wh@@EBA_NXZAEAV?$tuple@PEAVConditionVariable@utils@wh@@@0@$$QEAV?$tuple@$$V@0@@Z
	??$_Construct@$00PEBD@?$basic_string@DU?$char_traits@D@std@@V?$allocator@D@2@@std@@AEAAXQEBD_K@Z
	??$_Construct_from_iter@PEAE@?$basic_string@DU?$char_traits@D@std@@V?$allocator@D@2@@std@@AEAAXPEAEQEAE@Z
	??$_Construct_in_place@PEADAEAPEAD@std@@YAXAEAPEAD0@Z
	??$_Construct_in_place@PEADAEBQEAD@std@@YAXAEAPEADAEBQEAD@Z
	??$_Construct_in_place@U_Container_proxy@std@@PEAU_Container_base12@2@@std@@YAXAEAU_Container_proxy@0@$$QEAPEAU_Container_base12@0@@Z
	??$_Construct_in_place@VLogger@utils@wh@@$$V@std@@YAXAEAVLogger@utils@wh@@@Z
	??$_Construct_n@PEBEPEBE@?$vector@EV?$allocator@E@std@@@std@@AEAAX_K$$QEAPEBE1@Z
	??$_Convert_size@_K@std@@YA_K_K@Z
	??$_Copy_construct_from@VLogger@utils@wh@@@?$_Ptr_base@VILogger@utils@wh@@@std@@IEAAXAEBV?$shared_ptr@VLogger@utils@wh@@@1@@Z
	??$_Copy_memmove@PEBEPEAE@std@@YAPEAEPEBE0PEAE@Z
	??$_Deallocate@$0BA@$0A@@std@@YAXPEAX_K@Z
	??$_Deallocate_plain@V?$allocator@U_Container_proxy@std@@@std@@@std@@YAXAEAV?$allocator@U_Container_proxy@std@@@0@QEAU_Container_proxy@0@@Z
	??$_Delete_plain_internal@V?$allocator@U_Container_proxy@std@@@std@@@std@@YAXAEAV?$allocator@U_Container_proxy@std@@@0@QEAU_Container_proxy@0@@Z
	??$_Destroy_in_place@PEAD@std@@YAXAEAPEAD@Z
	??$_Destroy_in_place@VLogger@utils@wh@@@std@@YAXAEAVLogger@utils@wh@@@Z
	??$_Destroy_range@V?$allocator@E@std@@@std@@YAXPEAEQEAEAEAV?$allocator@E@0@@Z
	??$_Emplace_back@AEBE@?$_Uninitialized_backout_al@V?$allocator@E@std@@@std@@QEAAXAEBE@Z
	??$_Fix@V?$tuple@$$V@std@@@?$_Select_fixer@PEAVConditionVariable@utils@wh@@$0A@$0A@$0A@@std@@SAAEAPEAVConditionVariable@utils@wh@@AEAPEAV234@$$QEAV?$tuple@$$V@1@@Z
	??$_Fix_arg@PEAVConditionVariable@utils@wh@@V?$tuple@$$V@std@@@std@@YAAEAPEAVConditionVariable@utils@wh@@AEAPEAV123@$$QEAV?$tuple@$$V@0@@Z
	??$_Get_size_of_n@$00@std@@YA_K_K@Z
	??$_Get_size_of_n@$0BA@@std@@YA_K_K@Z
	??$_Get_unwrapped@AEAV?$_Array_const_iterator@E$0DPI@@std@@@std@@YA?A_TAEAV?$_Array_const_iterator@E$0DPI@@0@@Z
	??$_Get_unwrapped@AEAV?$_Vector_iterator@V?$_Vector_val@U?$_Simple_types@E@std@@@std@@@std@@@std@@YA?A_TAEAV?$_Vector_iterator@V?$_Vector_val@U?$_Simple_types@E@std@@@std@@@0@@Z
	??$_Get_unwrapped@AEBQEBE@std@@YA?A_TAEBQEBE@Z
	??$_Move_construct_from@VLogger@utils@wh@@@?$_Ptr_base@VLogger@utils@wh@@@std@@IEAAX$$QEAV01@@Z
	??$_Set_ptr_rep_and_enable_shared@VLogger@utils@wh@@@?$shared_ptr@VLogger@utils@wh@@@std@@AEAAXQEAVLogger@utils@wh@@QEAV_Ref_count_base@1@@Z
	??$_To_absolute_time@_JU?$ratio@$00$0DOI@@std@@@std@@YA?A_PAEBV?$duration@_JU?$ratio@$00$0DOI@@std@@@chrono@0@@Z
	??$_To_address@PEAE@std@@YA?A_PAEBQEAE@Z
	??$_To_address@PEBE@std@@YA?A_PAEBQEBE@Z
	??$_To_xtime_10_day_clamped@_JU?$ratio@$00$0DLJKMKAA@@std@@@std@@YA_NAEAUxtime@@AEBV?$duration@_JU?$ratio@$00$0DLJKMKAA@@std@@@chrono@0@@Z
	??$_Unfancy@D@std@@YAPEADPEAD@Z
	??$_Unfancy@E@std@@YAPEAEPEAE@Z
	??$_Unfancy@U_Container_proxy@std@@@std@@YAPEAU_Container_proxy@0@PEAU10@@Z
	??$_Uninitialized_copy@PEBEV?$allocator@E@std@@@std@@YAPEAEQEBE0PEAEAEAV?$allocator@E@0@@Z
	??$_Verify_range@E$0DPI@@std@@YAXAEBV?$_Array_const_iterator@E$0DPI@@0@0@Z
	??$_Voidify_iter@PEAE@std@@YAPEAXPEAE@Z
	??$_Voidify_iter@PEAPEAD@std@@YAPEAXPEAPEAD@Z
	??$_Voidify_iter@PEAU_Container_proxy@std@@@std@@YAPEAXPEAU_Container_proxy@0@@Z
	??$_Voidify_iter@PEAVLogger@utils@wh@@@std@@YAPEAXPEAVLogger@utils@wh@@@Z
	??$_Wait_until1@Usteady_clock@chrono@std@@V?$duration@_JU?$ratio@$00$0DLJKMKAA@@std@@@23@V?$_Binder@U_Unforced@std@@P8ConditionVariable@utils@wh@@EBA_NXZPEAV345@@3@@condition_variable@std@@AEAA_NAEAV?$unique_lock@Vmutex@std@@@1@AEBV?$time_point@Usteady_clock@chrono@std@@V?$duration@_JU?$ratio@$00$0DLJKMKAA@@std@@@23@@chrono@1@AEAV?$_Binder@U_Unforced@std@@P8ConditionVariable@utils@wh@@EBA_NXZPEAV345@@1@@Z
	??$addressof@$$CBV?$_String_val@U?$_Simple_types@D@std@@@std@@@std@@YAPEBV?$_String_val@U?$_Simple_types@D@std@@@0@AEBV10@@Z
	??$addressof@PEAD@std@@YAPEAPEADAEAPEAD@Z
	??$addressof@U_Container_base12@std@@@std@@YAPEAU_Container_base12@0@AEAU10@@Z
	??$addressof@U_Container_proxy@std@@@std@@YAPEAU_Container_proxy@0@AEAU10@@Z
	??$addressof@V?$_String_val@U?$_Simple_types@D@std@@@std@@@std@@YAPEAV?$_String_val@U?$_Simple_types@D@std@@@0@AEAV10@@Z
	??$addressof@V?$_Vector_val@U?$_Simple_types@E@std@@@std@@@std@@YAPEAV?$_Vector_val@U?$_Simple_types@E@std@@@0@AEAV10@@Z
	??$addressof@VLogger@utils@wh@@@std@@YAPEAVLogger@utils@wh@@AEAV123@@Z
	??$addressof@Vmutex@std@@@std@@YAPEAVmutex@0@AEAV10@@Z
	??$advance@V?$_Vector_iterator@V?$_Vector_val@U?$_Simple_types@E@std@@@std@@@std@@_J@std@@YAXAEAV?$_Vector_iterator@V?$_Vector_val@U?$_Simple_types@E@std@@@std@@@0@_J@Z
	??$bind@P8ConditionVariable@utils@wh@@EBA_NXZPEAV123@@std@@YA?AV?$_Binder@U_Unforced@std@@P8ConditionVariable@utils@wh@@EBA_NXZPEAV345@@0@$$QEAP8ConditionVariable@utils@wh@@EBA_NXZ$$QEAPEAV234@@Z
	??$construct@EAEBE@?$_Default_allocator_traits@V?$allocator@E@std@@@std@@SAXAEAV?$allocator@E@1@QEAEAEBE@Z
	??$distance@PEAE@std@@YA_JPEAE0@Z
	??$distance@PEBE@std@@YA_JPEBE0@Z
	??$duration_cast@V?$duration@NU?$ratio@$00$0DLJKMKAA@@std@@@chrono@std@@NU?$ratio@$00$00@3@$0A@@chrono@std@@YA?AV?$duration@NU?$ratio@$00$0DLJKMKAA@@std@@@01@AEBV?$duration@NU?$ratio@$00$00@std@@@01@@Z
	??$duration_cast@V?$duration@NU?$ratio@$00$0DLJKMKAA@@std@@@chrono@std@@_JU?$ratio@$00$0DLJKMKAA@@3@$0A@@chrono@std@@YA?AV?$duration@NU?$ratio@$00$0DLJKMKAA@@std@@@01@AEBV?$duration@_JU?$ratio@$00$0DLJKMKAA@@std@@@01@@Z
	??$duration_cast@V?$duration@_JU?$ratio@$00$00@std@@@chrono@std@@_JU?$ratio@$00$0DLJKMKAA@@3@$0A@@chrono@std@@YA?AV?$duration@_JU?$ratio@$00$00@std@@@01@AEBV?$duration@_JU?$ratio@$00$0DLJKMKAA@@std@@@01@@Z
	??$duration_cast@V?$duration@_JU?$ratio@$00$0DLJKMKAA@@std@@@chrono@std@@_JU?$ratio@$00$00@3@$0A@@chrono@std@@YA?AV?$duration@_JU?$ratio@$00$0DLJKMKAA@@std@@@01@AEBV?$duration@_JU?$ratio@$00$00@std@@@01@@Z
	??$duration_cast@V?$duration@_JU?$ratio@$00$0DLJKMKAA@@std@@@chrono@std@@_JU?$ratio@$00$0DLJKMKAA@@3@$0A@@chrono@std@@YA?AV?$duration@_JU?$ratio@$00$0DLJKMKAA@@std@@@01@AEBV201@@Z
	??$duration_cast@V?$duration@_JU?$ratio@$00$0DLJKMKAA@@std@@@chrono@std@@_JU?$ratio@$00$0DOI@@3@$0A@@chrono@std@@YA?AV?$duration@_JU?$ratio@$00$0DLJKMKAA@@std@@@01@AEBV?$duration@_JU?$ratio@$00$0DOI@@std@@@01@@Z
	??$duration_cast@V?$duration@_JU?$ratio@$00$0DLJKMKAA@@std@@@chrono@std@@_JU?$ratio@$00$0JIJGIA@@3@$0A@@chrono@std@@YA?AV?$duration@_JU?$ratio@$00$0DLJKMKAA@@std@@@01@AEBV?$duration@_JU?$ratio@$00$0JIJGIA@@std@@@01@@Z
	??$exchange@PEAE$$T@std@@YAPEAEAEAPEAE$$QEA$$T@Z
	??$exchange@PEAU_Container_proxy@std@@$$T@std@@YAPEAU_Container_proxy@0@AEAPEAU10@$$QEA$$T@Z
	??$forward@AEAPEAD@std@@YAAEAPEADAEAPEAD@Z
	??$forward@AEBE@std@@YAAEBEAEBE@Z
	??$forward@AEBQEAD@std@@YAAEBQEADAEBQEAD@Z
	??$forward@AEBV?$allocator@D@std@@@std@@YAAEBV?$allocator@D@0@AEBV10@@Z
	??$forward@AEBV?$allocator@E@std@@@std@@YAAEBV?$allocator@E@0@AEBV10@@Z
	??$forward@P8ConditionVariable@utils@wh@@EBA_NXZ@std@@YA$$QEAP8ConditionVariable@utils@wh@@EBA_NXZAEAP8123@EBA_NXZ@Z
	??$forward@PEAE@std@@YA$$QEAPEAEAEAPEAE@Z
	??$forward@PEAU_Container_base12@std@@@std@@YA$$QEAPEAU_Container_base12@0@AEAPEAU10@@Z
	??$forward@PEAVConditionVariable@utils@wh@@@std@@YA$$QEAPEAVConditionVariable@utils@wh@@AEAPEAV123@@Z
	??$forward@PEBE@std@@YA$$QEAPEBEAEAPEBE@Z
	??$forward@V?$allocator@D@std@@@std@@YA$$QEAV?$allocator@D@0@AEAV10@@Z
	??$forward@V?$allocator@E@std@@@std@@YA$$QEAV?$allocator@E@0@AEAV10@@Z
	??$forward_as_tuple@$$V@std@@YA?AV?$tuple@$$V@0@XZ
	??$get@$0A@PEAVConditionVariable@utils@wh@@@std@@YAAEAPEAVConditionVariable@utils@wh@@AEAV?$tuple@PEAVConditionVariable@utils@wh@@@0@@Z
	??$invoke@AEAP8ConditionVariable@utils@wh@@EBA_NXZAEAPEAV123@$$V@std@@YA_NAEAP8ConditionVariable@utils@wh@@EBA_NXZAEAPEAV123@@Z
	??$log@V?$basic_string_view@DU?$char_traits@D@std@@@std@@@logger@spdlog@@QEAAXW4level_enum@level@1@AEBV?$basic_string_view@DU?$char_traits@D@std@@@std@@@Z
	??$make_shared@VLogger@utils@wh@@$$V@std@@YA?AV?$shared_ptr@VLogger@utils@wh@@@0@XZ
	??$max@_K@std@@YAAEB_KAEB_K0@Z
	??$min@_K@std@@YAAEB_KAEB_K0@Z
	??$move@AEAPEAE@std@@YA$$QEAPEAEAEAPEAE@Z
	??$move@AEAPEBE@std@@YA$$QEAPEBEAEAPEBE@Z
	??$move@AEAV?$allocator@D@std@@@std@@YA$$QEAV?$allocator@D@0@AEAV10@@Z
	??$move@AEAV?$allocator@E@std@@@std@@YA$$QEAV?$allocator@E@0@AEAV10@@Z
	??$move@AEAV?$shared_ptr@VLogger@utils@wh@@@std@@@std@@YA$$QEAV?$shared_ptr@VLogger@utils@wh@@@0@AEAV10@@Z
	??$move@AEAV?$tuple@$$V@std@@@std@@YA$$QEAV?$tuple@$$V@0@AEAV10@@Z
	??$move@AEAV?$vector@EV?$allocator@E@std@@@std@@@std@@YA$$QEAV?$vector@EV?$allocator@E@std@@@0@AEAV10@@Z
	??$next@V?$_Vector_iterator@V?$_Vector_val@U?$_Simple_types@E@std@@@std@@@std@@@std@@YA?AV?$_Vector_iterator@V?$_Vector_val@U?$_Simple_types@E@std@@@std@@@0@V10@_J@Z
	??$validate@$0BA@$07@?$FastPimpl@VPimpl@Logger@utils@wh@@$0BA@$07@utils@wh@@CAXXZ
	??$wait_for@_JU?$ratio@$00$0DOI@@std@@V?$_Binder@U_Unforced@std@@P8ConditionVariable@utils@wh@@EBA_NXZPEAV345@@2@@condition_variable@std@@QEAA_NAEAV?$unique_lock@Vmutex@std@@@1@AEBV?$duration@_JU?$ratio@$00$0DOI@@std@@@chrono@1@V?$_Binder@U_Unforced@std@@P8ConditionVariable@utils@wh@@EBA_NXZPEAV345@@1@@Z
	??0?$_Array_const_iterator@E$0DPI@@std@@QEAA@PEBE_K@Z
	??0?$_Binder@U_Unforced@std@@P8ConditionVariable@utils@wh@@EBA_NXZPEAV345@@std@@QEAA@$$QEAP8ConditionVariable@utils@wh@@EBA_NXZ$$QEAPEAV234@@Z
	??0?$_Container_proxy_ptr12@V?$allocator@U_Container_proxy@std@@@std@@@std@@QEAA@AEAV?$allocator@U_Container_proxy@std@@@1@AEAU_Container_base12@1@@Z
	??0?$_Ptr_base@VILogger@utils@wh@@@std@@IEAA@XZ
	??0?$_Ptr_base@VLogger@utils@wh@@@std@@IEAA@XZ
	??0?$_String_val@U?$_Simple_types@D@std@@@std@@QEAA@XZ
	??0?$_Uninitialized_backout_al@V?$allocator@E@std@@@std@@QEAA@PEAEAEAV?$allocator@E@1@@Z
	??0?$_Vector_const_iterator@V?$_Vector_val@U?$_Simple_types@E@std@@@std@@@std@@QEAA@$$QEAV01@@Z
	??0?$_Vector_const_iterator@V?$_Vector_val@U?$_Simple_types@E@std@@@std@@@std@@QEAA@AEBV01@@Z
	??0?$_Vector_const_iterator@V?$_Vector_val@U?$_Simple_types@E@std@@@std@@@std@@QEAA@PEAEPEBU_Container_base12@1@@Z
	??0?$_Vector_iterator@V?$_Vector_val@U?$_Simple_types@E@std@@@std@@@std@@QEAA@$$QEAV01@@Z
	??0?$_Vector_iterator@V?$_Vector_val@U?$_Simple_types@E@std@@@std@@@std@@QEAA@AEBV01@@Z
	??0?$_Vector_iterator@V?$_Vector_val@U?$_Simple_types@E@std@@@std@@@std@@QEAA@PEAEPEBU_Container_base12@1@@Z
	??0?$_Vector_val@U?$_Simple_types@E@std@@@std@@QEAA@PEAE00@Z
	??0?$_Vector_val@U?$_Simple_types@E@std@@@std@@QEAA@XZ
	??0?$allocator@D@std@@QEAA@XZ
	??0?$allocator@E@std@@QEAA@XZ
	??0?$basic_string@DU?$char_traits@D@std@@V?$allocator@D@2@@std@@QEAA@$$QEAV01@@Z
	??0?$basic_string@DU?$char_traits@D@std@@V?$allocator@D@2@@std@@QEAA@QEBD@Z
	??0?$basic_string@DU?$char_traits@D@std@@V?$allocator@D@2@@std@@QEAA@XZ
	??0?$shared_ptr@VLogger@utils@wh@@@std@@QEAA@$$QEAV01@@Z
	??0?$shared_ptr@VLogger@utils@wh@@@std@@QEAA@XZ
	??0?$time_point@Usteady_clock@chrono@std@@V?$duration@_JU?$ratio@$00$0DLJKMKAA@@std@@@23@@chrono@std@@QEAA@AEBV?$duration@_JU?$ratio@$00$0DLJKMKAA@@std@@@12@@Z
	??0?$time_point@Usystem_clock@chrono@std@@V?$duration@_JU?$ratio@$00$0JIJGIA@@std@@@23@@chrono@std@@QEAA@AEBV?$duration@_JU?$ratio@$00$0JIJGIA@@std@@@12@@Z
	??0?$unique_lock@Vmutex@std@@@std@@QEAA@AEAVmutex@1@@Z
	??0?$vector@EV?$allocator@E@std@@@std@@QEAA@$$QEAV01@@Z
	??0Deserializer@utils@wh@@QEAA@V?$vector@EV?$allocator@E@std@@@std@@@Z
	??0ILogger@utils@wh@@QEAA@XZ
	??0Logger@utils@wh@@QEAA@XZ
	??0Pimpl@Logger@utils@wh@@QEAA@XZ
	??0_Basic_container_proxy_ptr12@std@@IEAA@XZ
	??0_Bxty@?$_String_val@U?$_Simple_types@D@std@@@std@@QEAA@XZ
	??0_Container_base12@std@@QEAA@XZ
	??0_Container_proxy@std@@QEAA@PEAU_Container_base12@1@@Z
	??0_Iterator_base12@std@@QEAA@AEBU01@@Z
	??0_Iterator_base12@std@@QEAA@XZ
	??0_Iterator_base12_compatible@std@@QEAA@XZ
	??0_Ref_count_base@std@@IEAA@XZ
	??0bad_alloc@std@@AEAA@QEBD@Z
	??0bad_alloc@std@@QEAA@AEBV01@@Z
	??0bad_array_new_length@std@@QEAA@AEBV01@@Z
	??0bad_array_new_length@std@@QEAA@XZ
	??0exception@std@@QEAA@AEBV01@@Z
	??0exception@std@@QEAA@QEBD@Z
	??0exception@std@@QEAA@QEBDH@Z
	??0runtime_error@std@@QEAA@AEBV01@@Z
	??0runtime_error@std@@QEAA@PEBD@Z
	??0source_loc@spdlog@@QEAA@XZ
	??1?$FastPimpl@VPimpl@Logger@utils@wh@@$0BA@$07@utils@wh@@QEAA@XZ
	??1?$_Compressed_pair@V?$allocator@D@std@@V?$_String_val@U?$_Simple_types@D@std@@@2@$00@std@@QEAA@XZ
	??1?$_Container_proxy_ptr12@V?$allocator@U_Container_proxy@std@@@std@@@std@@QEAA@XZ
	??1?$_Ref_count_obj2@VLogger@utils@wh@@@std@@UEAA@XZ
	??1?$_String_val@U?$_Simple_types@D@std@@@std@@QEAA@XZ
	??1?$_Tidy_deallocate_guard@V?$basic_string@DU?$char_traits@D@std@@V?$allocator@D@2@@std@@@std@@QEAA@XZ
	??1?$_Tidy_guard@V?$vector@EV?$allocator@E@std@@@std@@@std@@QEAA@XZ
	??1?$_Uninitialized_backout_al@V?$allocator@E@std@@@std@@QEAA@XZ
	??1?$_Vector_const_iterator@V?$_Vector_val@U?$_Simple_types@E@std@@@std@@@std@@QEAA@XZ
	??1?$_Vector_iterator@V?$_Vector_val@U?$_Simple_types@E@std@@@std@@@std@@QEAA@XZ
	??1?$basic_string@DU?$char_traits@D@std@@V?$allocator@D@2@@std@@QEAA@XZ
	??1?$shared_ptr@VLogger@utils@wh@@@std@@QEAA@XZ
	??1?$shared_ptr@Vlogger@spdlog@@@std@@QEAA@XZ
	??1?$unique_lock@Vmutex@std@@@std@@QEAA@XZ
	??1?$vector@EV?$allocator@E@std@@@std@@QEAA@XZ
	??1ILogger@utils@wh@@UEAA@XZ
	??1Logger@utils@wh@@UEAA@XZ
	??1Pimpl@Logger@utils@wh@@QEAA@XZ
	??1_Bxty@?$_String_val@U?$_Simple_types@D@std@@@std@@QEAA@XZ
	??1_Iterator_base12@std@@QEAA@XZ
	??1_Ref_count_base@std@@UEAA@XZ
	??1bad_alloc@std@@UEAA@XZ
	??1bad_array_new_length@std@@UEAA@XZ
	??1exception@std@@UEAA@XZ
	??1runtime_error@std@@UEAA@XZ
	??2@YAPEAX_KPEAX@Z
	??4_Iterator_base12@std@@QEAAAEAU01@AEBU01@@Z
	??BConditionVariable@utils@wh@@QEBA_NXZ
	??C?$FastPimpl@VPimpl@Logger@utils@wh@@$0BA@$07@utils@wh@@QEAAPEAVPimpl@Logger@12@XZ
	??H?$_Array_const_iterator@E$0DPI@@std@@QEBA?AV01@_J@Z
	??M?$_Array_const_iterator@E$0DPI@@std@@QEBA_NAEBV01@@Z
	??N?$_Array_const_iterator@E$0DPI@@std@@QEBA_NAEBV01@@Z
	??Y?$_Array_const_iterator@E$0DPI@@std@@QEAAAEAV01@_J@Z
	??Y?$_Vector_const_iterator@V?$_Vector_val@U?$_Simple_types@E@std@@@std@@@std@@QEAAAEAV01@_J@Z
	??Y?$_Vector_iterator@V?$_Vector_val@U?$_Simple_types@E@std@@@std@@@std@@QEAAAEAV01@_J@Z
	??Y?$duration@_JU?$ratio@$00$0DLJKMKAA@@std@@@chrono@std@@QEAAAEAV012@AEBV012@@Z
	??Y?$time_point@Usteady_clock@chrono@std@@V?$duration@_JU?$ratio@$00$0DLJKMKAA@@std@@@23@@chrono@std@@QEAAAEAV012@AEBV?$duration@_JU?$ratio@$00$0DLJKMKAA@@std@@@12@@Z
	??Z?$duration@_JU?$ratio@$00$0DLJKMKAA@@std@@@chrono@std@@QEAAAEAV012@AEBV012@@Z
	?AlignData@Serializer@utils@wh@@QEAAX_K@Z
	?CheckSize@Deserializer@utils@wh@@AEBAX_K@Z
	?CheckSize@Serializer@utils@wh@@AEBAX_K@Z
	?Clean@Serializer@utils@wh@@QEAAXXZ
	?Data@Serializer@utils@wh@@QEBA?AV?$vector@EV?$allocator@E@std@@@std@@XZ
	?Debug@Logger@utils@wh@@UEAAXV?$basic_string_view@DU?$char_traits@D@std@@@std@@@Z
	?Error@Logger@utils@wh@@UEAAXV?$basic_string_view@DU?$char_traits@D@std@@@std@@@Z
	?Fatal@Logger@utils@wh@@UEAAXV?$basic_string_view@DU?$char_traits@D@std@@@std@@@Z
	?Get@ConditionVariable@utils@wh@@QEBA_NXZ
	?GetString@Deserializer@utils@wh@@QEAA?AV?$basic_string@DU?$char_traits@D@std@@V?$allocator@D@2@@std@@_K@Z
	?HasData@Deserializer@utils@wh@@QEBA_NXZ
	?Info@Logger@utils@wh@@UEAAXV?$basic_string_view@DU?$char_traits@D@std@@@std@@@Z
	?Log@Pimpl@Logger@utils@wh@@QEAAXW4LogLevel@34@V?$basic_string_view@DU?$char_traits@D@std@@@std@@@Z
	?LoggerSingleton@utils@wh@@YA?AV?$shared_ptr@VILogger@utils@wh@@@std@@XZ
	?NextPos@Serializer@utils@wh@@AEAAPEAEXZ
	?Notify@ConditionVariable@utils@wh@@QEAAXXZ
	?Pop@Deserializer@utils@wh@@QEAAX_K@Z
	?Ptr@?$FastPimpl@VPimpl@Logger@utils@wh@@$0BA@$07@utils@wh@@AEAAPEAVPimpl@Logger@23@XZ
	?Reset@ConditionVariable@utils@wh@@QEAAXXZ
	?SetLevel@Logger@utils@wh@@UEAAXW4LogLevel@23@@Z
	?SetLevel@Pimpl@Logger@utils@wh@@QEAAXW4LogLevel@34@@Z
	?ToSpdlogLevel@utils@wh@@YA?AW4level_enum@level@spdlog@@W4LogLevel@12@@Z
	?Trace@Logger@utils@wh@@UEAAXV?$basic_string_view@DU?$char_traits@D@std@@@std@@@Z
	?UpdatePos@Deserializer@utils@wh@@AEAAX_K@Z
	?WaitFor@ConditionVariable@utils@wh@@QEAA_N_K@Z
	?Warning@Logger@utils@wh@@UEAAXV?$basic_string_view@DU?$char_traits@D@std@@@std@@@Z
	?_Adjust_manually_vector_aligned@std@@YAXAEAPEAXAEA_K@Z
	?_Adopt@_Iterator_base12@std@@QEAAXPEBU_Container_base12@2@@Z
	?_Adopt_locked@_Iterator_base12@std@@AEAAXPEBU_Container_base12@2@@Z
	?_Adopt_unlocked@_Iterator_base12@std@@AEAAXPEBU_Container_base12@2@@Z
	?_Allocate@_Default_allocate_traits@std@@SAPEAX_K@Z
	?_Assign_locked@_Iterator_base12@std@@AEAAXAEBU12@@Z
	?_Assign_unlocked@_Iterator_base12@std@@AEAAXAEBU12@@Z
	?_Become_small@?$basic_string@DU?$char_traits@D@std@@V?$allocator@D@2@@std@@AEAAXXZ
	?_Buy_nonzero@?$vector@EV?$allocator@E@std@@@std@@AEAAX_K@Z
	?_Buy_raw@?$vector@EV?$allocator@E@std@@@std@@AEAAX_K@Z
	?_Calculate_growth@?$basic_string@DU?$char_traits@D@std@@V?$allocator@D@2@@std@@AEBA_K_K@Z
	?_Calculate_growth@?$basic_string@DU?$char_traits@D@std@@V?$allocator@D@2@@std@@CA_K_K00@Z
	?_Check_C_return@std@@YAHH@Z
	?_Compat@?$_Array_const_iterator@E$0DPI@@std@@QEBAXAEBV12@@Z
	?_Decref@?$_Ptr_base@VLogger@utils@wh@@@std@@IEAAXXZ
	?_Decref@?$_Ptr_base@Vlogger@spdlog@@@std@@IEAAXXZ
	?_Decref@_Ref_count_base@std@@QEAAXXZ
	?_Decwref@_Ref_count_base@std@@QEAAXXZ
	?_Delete_this@?$_Ref_count_obj2@VLogger@utils@wh@@@std@@EEAAXXZ
	?_Destroy@?$_Ref_count_obj2@VLogger@utils@wh@@@std@@EEAAXXZ
	?_Eos@?$basic_string@DU?$char_traits@D@std@@V?$allocator@D@2@@std@@AEAAX_K@Z
	?_Get_deleter@_Ref_count_base@std@@UEBAPEAXAEBVtype_info@@@Z
	?_Get_first@?$_Compressed_pair@P8ConditionVariable@utils@wh@@EBA_NXZV?$tuple@PEAVConditionVariable@utils@wh@@@std@@$0A@@std@@QEAAAEAP8ConditionVariable@utils@wh@@EBA_NXZXZ
	?_Get_first@?$_Compressed_pair@V?$allocator@D@std@@V?$_String_val@U?$_Simple_types@D@std@@@2@$00@std@@QEAAAEAV?$allocator@D@2@XZ
	?_Get_first@?$_Compressed_pair@V?$allocator@D@std@@V?$_String_val@U?$_Simple_types@D@std@@@2@$00@std@@QEBAAEBV?$allocator@D@2@XZ
	?_Get_first@?$_Compressed_pair@V?$allocator@E@std@@V?$_Vector_val@U?$_Simple_types@E@std@@@2@$00@std@@QEAAAEAV?$allocator@E@2@XZ
	?_Get_first@?$_Compressed_pair@V?$allocator@E@std@@V?$_Vector_val@U?$_Simple_types@E@std@@@2@$00@std@@QEBAAEBV?$allocator@E@2@XZ
	?_Getal@?$basic_string@DU?$char_traits@D@std@@V?$allocator@D@2@@std@@AEAAAEAV?$allocator@D@2@XZ
	?_Getal@?$basic_string@DU?$char_traits@D@std@@V?$allocator@D@2@@std@@AEBAAEBV?$allocator@D@2@XZ
	?_Getal@?$vector@EV?$allocator@E@std@@@std@@AEAAAEAV?$allocator@E@2@XZ
	?_Getal@?$vector@EV?$allocator@E@std@@@std@@AEBAAEBV?$allocator@E@2@XZ
	?_Getcont@_Iterator_base12@std@@QEBAPEBU_Container_base12@2@XZ
	?_Incref@?$_Ptr_base@VLogger@utils@wh@@@std@@IEBAXXZ
	?_Incref@_Ref_count_base@std@@QEAAXXZ
	?_Large_string_engaged@?$_String_val@U?$_Simple_types@D@std@@@std@@QEBA_NXZ
	?_Memcpy_val_from@?$basic_string@DU?$char_traits@D@std@@V?$allocator@D@2@@std@@AEAAXAEBV12@@Z
	?_Mycnd@condition_variable@std@@AEAAPEAU_Cnd_internal_imp_t@@XZ
	?_Mymtx@_Mutex_base@std@@AEAAPEAU_Mtx_internal_imp_t@@XZ
	?_Myptr@?$_String_val@U?$_Simple_types@D@std@@@std@@QEAAPEADXZ
	?_Orphan_all@_Container_base12@std@@QEAAXXZ
	?_Orphan_all_locked_v3@_Container_base12@std@@AEAAXXZ
	?_Orphan_all_unlocked_v3@_Container_base12@std@@AEAAXXZ
	?_Orphan_me_locked_v3@_Iterator_base12@std@@AEAAXXZ
	?_Orphan_me_unlocked_v3@_Iterator_base12@std@@AEAAXXZ
	?_Release@?$_Uninitialized_backout_al@V?$allocator@E@std@@@std@@QEAAPEAEXZ
	?_Release@_Basic_container_proxy_ptr12@std@@QEAAXXZ
	?_Swap_proxy_and_iterators@?$basic_string@DU?$char_traits@D@std@@V?$allocator@D@2@@std@@AEAAXAEAV12@@Z
	?_Swap_proxy_and_iterators@_Container_base12@std@@QEAAXAEAU12@@Z
	?_Swap_proxy_and_iterators_locked@_Container_base12@std@@AEAAXAEAU12@@Z
	?_Swap_proxy_and_iterators_unlocked@_Container_base12@std@@AEAAXAEAU12@@Z
	?_Take_contents@?$basic_string@DU?$char_traits@D@std@@V?$allocator@D@2@@std@@AEAAXAEAV12@@Z
	?_Throw_bad_array_new_length@std@@YAXXZ
	?_Tidy@?$vector@EV?$allocator@E@std@@@std@@AEAAXXZ
	?_Tidy_deallocate@?$basic_string@DU?$char_traits@D@std@@V?$allocator@D@2@@std@@AEAAXXZ
	?_Tidy_init@?$basic_string@DU?$char_traits@D@std@@V?$allocator@D@2@@std@@AEAAXXZ
	?_Unwrapped@?$_Array_const_iterator@E$0DPI@@std@@QEBAPEBEXZ
	?_Unwrapped@?$_Vector_iterator@V?$_Vector_val@U?$_Simple_types@E@std@@@std@@@std@@QEBAPEAEXZ
	?_Verify_offset@?$_Array_const_iterator@E$0DPI@@std@@QEBAX_J@Z
	?_Verify_offset@?$_Vector_const_iterator@V?$_Vector_val@U?$_Simple_types@E@std@@@std@@@std@@QEBAX_J@Z
	?_Verify_range@std@@YAXAEBV?$_Vector_const_iterator@V?$_Vector_val@U?$_Simple_types@E@std@@@std@@@1@0@Z
	?_Verify_with@?$_Array_const_iterator@E$0DPI@@std@@QEBAXAEBV12@@Z
	?_Xlen_string@std@@YAXXZ
	?_Xlength@?$vector@EV?$allocator@E@std@@@std@@CAXXZ
	?__empty_global_delete@@YAXPEAX@Z
	?__empty_global_delete@@YAXPEAXW4align_val_t@std@@@Z
	?__empty_global_delete@@YAXPEAX_K@Z
	?__empty_global_delete@@YAXPEAX_KW4align_val_t@std@@@Z
	?allocate@?$allocator@D@std@@QEAAPEAD_K@Z
	?allocate@?$allocator@E@std@@QEAAPEAE_K@Z
	?allocate@?$allocator@U_Container_proxy@std@@@std@@QEAAPEAU_Container_proxy@2@_K@Z
	?assign@?$_Narrow_char_traits@DH@std@@SAXAEADAEBD@Z
	?back@?$basic_string@DU?$char_traits@D@std@@V?$allocator@D@2@@std@@QEAAAEADXZ
	?begin@?$array@E$0DPI@@std@@QEBA?AV?$_Array_const_iterator@E$0DPI@@2@XZ
	?begin@?$vector@EV?$allocator@E@std@@@std@@QEAA?AV?$_Vector_iterator@V?$_Vector_val@U?$_Simple_types@E@std@@@std@@@2@XZ
	?copy@?$_Char_traits@DH@std@@SAPEADQEADQEBD_K@Z
	?count@?$duration@NU?$ratio@$00$00@std@@@chrono@std@@QEBANXZ
	?count@?$duration@NU?$ratio@$00$0DLJKMKAA@@std@@@chrono@std@@QEBANXZ
	?count@?$duration@_JU?$ratio@$00$00@std@@@chrono@std@@QEBA_JXZ
	?count@?$duration@_JU?$ratio@$00$0DLJKMKAA@@std@@@chrono@std@@QEBA_JXZ
	?count@?$duration@_JU?$ratio@$00$0DOI@@std@@@chrono@std@@QEBA_JXZ
	?count@?$duration@_JU?$ratio@$00$0JIJGIA@@std@@@chrono@std@@QEBA_JXZ
	?data@?$array@E$0DPI@@std@@QEAAPEAEXZ
	?data@?$basic_string_view@DU?$char_traits@D@std@@@std@@QEBAPEBDXZ
	?deallocate@?$_Default_allocator_traits@V?$allocator@U_Container_proxy@std@@@std@@@std@@SAXAEAV?$allocator@U_Container_proxy@std@@@2@QEAU_Container_proxy@2@_K@Z
	?deallocate@?$allocator@D@std@@QEAAXQEAD_K@Z
	?deallocate@?$allocator@E@std@@QEAAXQEAE_K@Z
	?get@?$_Ptr_base@Vlogger@spdlog@@@std@@IEBAPEAVlogger@spdlog@@XZ
	?length@?$_Narrow_char_traits@DH@std@@SA_KQEBD@Z
	?load@?$_Atomic_storage@_N$00@std@@QEBA_NXZ
	?lock@_Mutex_base@std@@QEAAXXZ
	?max@?$numeric_limits@_J@std@@SA_JXZ
	?max_size@?$_Default_allocator_traits@V?$allocator@D@std@@@std@@SA_KAEBV?$allocator@D@2@@Z
	?max_size@?$_Default_allocator_traits@V?$allocator@E@std@@@std@@SA_KAEBV?$allocator@E@2@@Z
	?max_size@?$basic_string@DU?$char_traits@D@std@@V?$allocator@D@2@@std@@QEBA_KXZ
	?max_size@?$vector@EV?$allocator@E@std@@@std@@QEBA_KXZ
	?move@?$_Char_traits@DH@std@@SAPEADQEADQEBD_K@Z
	?mutex@?$unique_lock@Vmutex@std@@@std@@QEBAPEAV02@XZ
	?notify_one@condition_variable@std@@QEAAXXZ
	?now@steady_clock@chrono@std@@SA?AV?$time_point@Usteady_clock@chrono@std@@V?$duration@_JU?$ratio@$00$0DLJKMKAA@@std@@@23@@23@XZ
	?now@system_clock@chrono@std@@SA?AV?$time_point@Usystem_clock@chrono@std@@V?$duration@_JU?$ratio@$00$0JIJGIA@@std@@@23@@23@XZ
	?pop_back@?$basic_string@DU?$char_traits@D@std@@V?$allocator@D@2@@std@@QEAAXXZ
	?shrink_to_fit@?$basic_string@DU?$char_traits@D@std@@V?$allocator@D@2@@std@@QEAAXXZ
	?size@?$array@E$0DPI@@std@@QEBA_KXZ
	?size@?$basic_string_view@DU?$char_traits@D@std@@@std@@QEBA_KXZ
	?size@?$vector@EV?$allocator@E@std@@@std@@QEBA_KXZ
	?store@?$_Atomic_storage@_N$00@std@@QEAAX_N@Z
	?time_since_epoch@?$time_point@Usteady_clock@chrono@std@@V?$duration@_JU?$ratio@$00$0DLJKMKAA@@std@@@23@@chrono@std@@QEBA?AV?$duration@_JU?$ratio@$00$0DLJKMKAA@@std@@@23@XZ
	?time_since_epoch@?$time_point@Usystem_clock@chrono@std@@V?$duration@_JU?$ratio@$00$0JIJGIA@@std@@@23@@chrono@std@@QEBA?AV?$duration@_JU?$ratio@$00$0JIJGIA@@std@@@23@XZ
	?unlock@_Mutex_base@std@@QEAAXXZ
	?wait_until@condition_variable@std@@QEAA?AW4cv_status@2@AEAV?$unique_lock@Vmutex@std@@@2@PEBUxtime@@@Z
	?what@exception@std@@UEBAPEBDXZ
